target datalayout = "e-m:e-p270:32:32-p271:32:32-p272:64:64-i64:64-i128:128-f80:128-n8:16:32:64-S128"
target triple = "x86_64-pc-linux-gnu"

; Function Attrs: nounwind uwtable
define internal i32 @dh_type_specific_params_to_der(ptr noundef %0, ptr noundef %1, ptr noundef %2) #0 {
  %4 = alloca i32, align 4
  %5 = alloca ptr, align 8
  %6 = alloca ptr, align 8
  %7 = alloca ptr, align 8
  store ptr %0, ptr %5, align 8, !tbaa !3
  store ptr %1, ptr %6, align 8, !tbaa !40
  store ptr %2, ptr %7, align 8, !tbaa !3
  %8 = load ptr, ptr %5, align 8, !tbaa !3
  %9 = call i32 @DH_test_flags(ptr noundef %8, i32 noundef 4096)
  %10 = icmp ne i32 %9, 0
  br i1 %10, label %11, label %15

11:                                               ; preds = %3
  %12 = load ptr, ptr %5, align 8, !tbaa !3
  %13 = load ptr, ptr %6, align 8, !tbaa !40
  %14 = call i32 @i2d_DHxparams(ptr noundef %12, ptr noundef %13)
  store i32 %14, ptr %4, align 4
  br label %19

15:                                               ; preds = %3
  %16 = load ptr, ptr %5, align 8, !tbaa !3
  %17 = load ptr, ptr %6, align 8, !tbaa !40
  %18 = call i32 @i2d_DHparams(ptr noundef %16, ptr noundef %17)
  store i32 %18, ptr %4, align 4
  br label %19

19:                                               ; preds = %15, %11
  %20 = load i32, ptr %4, align 4
  ret i32 %20
}