; Function Attrs: nounwind uwtable
define internal i32 @dh_type_specific_params_to_der(ptr noundef %0, ptr noundef %1, ptr readnone captures(none) %2) #0 {
  %4 = tail call i32 @DH_test_flags(ptr noundef %0, i32 noundef 4096) #5
  %.not = icmp eq i32 %4, 0
  br i1 %.not, label %7, label %5

5:                                                ; preds = %3
  %6 = tail call i32 @i2d_DHxparams(ptr noundef %0, ptr noundef %1) #5
  br label %9

7:                                                ; preds = %3
  %8 = tail call i32 @i2d_DHparams(ptr noundef %0, ptr noundef %1) #5
  br label %9

9:                                                ; preds = %7, %5
  %.0 = phi i32 [ %6, %5 ], [ %8, %7 ]
  ret i32 %.0
}